; Function Attrs: mustprogress uwtable
define hidden void @_ZN3ade15ExecutionEngine18addPrePassCallbackESt8functionIFvRKNS0_8PassDescERKNS_6passes11PassContextEEE(ptr noundef nonnull align 8 dereferenceable(272) %0, ptr noundef %1) local_unnamed_addr #0 align 2 personality ptr @__gxx_personality_v0 {
  %3 = getelementptr inbounds nuw i8, ptr %0, i64 32
  %4 = load ptr, ptr %3, align 8, !tbaa !47
  %5 = getelementptr inbounds nuw i8, ptr %0, i64 40
  %6 = load ptr, ptr %5, align 8, !tbaa !68
  %.not.i = icmp eq ptr %4, %6
  br i1 %.not.i, label %18, label %7

7:                                                ; preds = %2
  %8 = getelementptr inbounds nuw i8, ptr %4, i64 24
  %9 = getelementptr inbounds nuw i8, ptr %1, i64 24
  tail call void @llvm.memset.p0.i64(ptr noundef nonnull align 8 dereferenceable(32) %4, i8 0, i64 24, i1 false)
  %10 = load ptr, ptr %9, align 8, !tbaa !69
  store ptr %10, ptr %8, align 8, !tbaa !69
  %11 = getelementptr inbounds nuw i8, ptr %1, i64 16
  %12 = load ptr, ptr %11, align 8, !tbaa !48
  %.not.i.i.not.i.i.i.i = icmp eq ptr %12, null
  br i1 %.not.i.i.not.i.i.i.i, label %_ZNSt16allocator_traitsISaISt8functionIFvRKN3ade15ExecutionEngine8PassDescERKNS1_6passes11PassContextEEEEE9constructISB_JSB_EEEvRSC_PT_DpOT0_.exit.i, label %13

13:                                               ; preds = %7
  %14 = getelementptr inbounds nuw i8, ptr %4, i64 16
  tail call void @llvm.memcpy.p0.p0.i64(ptr noundef nonnull align 8 dereferenceable(32) %4, ptr noundef nonnull align 8 dereferenceable(32) %1, i64 16, i1 false), !tbaa.struct !71
  %15 = load ptr, ptr %11, align 8, !tbaa !48
  store ptr %15, ptr %14, align 8, !tbaa !48
  tail call void @llvm.memset.p0.i64(ptr noundef nonnull align 8 dereferenceable(16) %11, i8 0, i64 16, i1 false)
  br label %_ZNSt16allocator_traitsISaISt8functionIFvRKN3ade15ExecutionEngine8PassDescERKNS1_6passes11PassContextEEEEE9constructISB_JSB_EEEvRSC_PT_DpOT0_.exit.i

_ZNSt16allocator_traitsISaISt8functionIFvRKN3ade15ExecutionEngine8PassDescERKNS1_6passes11PassContextEEEEE9constructISB_JSB_EEEvRSC_PT_DpOT0_.exit.i: ; preds = %13, %7
  %16 = load ptr, ptr %3, align 8, !tbaa !47
  %17 = getelementptr inbounds nuw i8, ptr %16, i64 32
  store ptr %17, ptr %3, align 8, !tbaa !47
  br label %_ZNSt6vectorISt8functionIFvRKN3ade15ExecutionEngine8PassDescERKNS1_6passes11PassContextEEESaISB_EE12emplace_backIJSB_EEEvDpOT_.exit

18:                                               ; preds = %2
  %19 = getelementptr inbounds nuw i8, ptr %0, i64 24
  tail call void @_ZNSt6vectorISt8functionIFvRKN3ade15ExecutionEngine8PassDescERKNS1_6passes11PassContextEEESaISB_EE17_M_realloc_insertIJSB_EEEvN9__gnu_cxx17__normal_iteratorIPSB_SD_EEDpOT_(ptr noundef nonnull align 8 dereferenceable(24) %19, ptr %4, ptr noundef nonnull align 8 dereferenceable(32) %1)
  br label %_ZNSt6vectorISt8functionIFvRKN3ade15ExecutionEngine8PassDescERKNS1_6passes11PassContextEEESaISB_EE12emplace_backIJSB_EEEvDpOT_.exit

_ZNSt6vectorISt8functionIFvRKN3ade15ExecutionEngine8PassDescERKNS1_6passes11PassContextEEESaISB_EE12emplace_backIJSB_EEEvDpOT_.exit: ; preds = %_ZNSt16allocator_traitsISaISt8functionIFvRKN3ade15ExecutionEngine8PassDescERKNS1_6passes11PassContextEEEEE9constructISB_JSB_EEEvRSC_PT_DpOT0_.exit.i, %18
  ret void
}